; Function Attrs: nounwind uwtable
define ptr @l_Std_Time_Year_Offset_days(ptr noundef %0) local_unnamed_addr #1 {
  %2 = load ptr, ptr @l_Std_Time_Year_Offset_isLeap___closed__1, align 8, !tbaa !10
  %3 = ptrtoint ptr %0 to i64
  %4 = and i64 %3, 1
  %.not.i29 = icmp eq i64 %4, 0
  br i1 %.not.i29, label %.critedge.i, label %5, !prof !15

5:                                                ; preds = %1
  %6 = ptrtoint ptr %2 to i64
  %7 = and i64 %6, 1
  %.not11.i = icmp eq i64 %7, 0
  br i1 %.not11.i, label %.critedge.i, label %8, !prof !15

8:                                                ; preds = %5
  %9 = shl i64 %6, 31
  %10 = icmp ult i64 %9, 4294967296
  br i1 %10, label %lean_int_mod.exit, label %11

11:                                               ; preds = %8
  %12 = ashr i64 %9, 32
  %13 = shl i64 %3, 31
  %14 = ashr i64 %13, 32
  %15 = srem i64 %14, %12
  %16 = shl nsw i64 %15, 1
  %17 = and i64 %16, 8589934590
  %18 = or disjoint i64 %17, 1
  %19 = inttoptr i64 %18 to ptr
  br label %lean_int_mod.exit

.critedge.i:                                      ; preds = %5, %1
  %20 = tail call ptr @lean_int_big_mod(ptr noundef %0, ptr noundef %2) #6
  br label %lean_int_mod.exit

lean_int_mod.exit:                                ; preds = %8, %11, %.critedge.i
  %.1.i = phi ptr [ %20, %.critedge.i ], [ %0, %8 ], [ %19, %11 ]
  %21 = load ptr, ptr @l_Std_Time_Year_Offset_isLeap___closed__2, align 8, !tbaa !10
  %22 = ptrtoint ptr %.1.i to i64
  %23 = ptrtoint ptr %21 to i64
  %24 = and i64 %22, 1
  %25 = and i64 %24, %23
  %or.cond.not.i.i = icmp eq i64 %25, 0
  br i1 %or.cond.not.i.i, label %.critedge.i.i, label %26, !prof !16

26:                                               ; preds = %lean_int_mod.exit
  %27 = icmp eq ptr %.1.i, %21
  br label %lean_int_dec_eq.exit

.critedge.i.i:                                    ; preds = %lean_int_mod.exit
  %28 = tail call zeroext i1 @lean_int_big_eq(ptr noundef %.1.i, ptr noundef %21) #6
  br label %lean_int_dec_eq.exit

lean_int_dec_eq.exit:                             ; preds = %26, %.critedge.i.i
  %.0.i.i = phi i1 [ %27, %26 ], [ %28, %.critedge.i.i ]
  %.not = icmp eq i64 %24, 0
  br i1 %.not, label %29, label %lean_dec.exit24

29:                                               ; preds = %lean_int_dec_eq.exit
  %30 = load i32, ptr %.1.i, align 4, !tbaa !4
  %31 = icmp sgt i32 %30, 1
  br i1 %31, label %32, label %34, !prof !9

32:                                               ; preds = %29
  %33 = add nsw i32 %30, -1
  store i32 %33, ptr %.1.i, align 4, !tbaa !4
  br label %lean_dec.exit24

34:                                               ; preds = %29
  %.not.i = icmp eq i32 %30, 0
  br i1 %.not.i, label %lean_dec.exit24, label %35

35:                                               ; preds = %34
  tail call void @lean_dec_ref_cold(ptr noundef nonnull %.1.i) #6
  br label %lean_dec.exit24

lean_dec.exit24:                                  ; preds = %35, %34, %32, %lean_int_dec_eq.exit
  br i1 %.0.i.i, label %36, label %101

36:                                               ; preds = %lean_dec.exit24
  %37 = load ptr, ptr @l_Std_Time_Year_Offset_isLeap___closed__3, align 8, !tbaa !10
  br i1 %.not.i29, label %.critedge.i33, label %38, !prof !15

38:                                               ; preds = %36
  %39 = ptrtoint ptr %37 to i64
  %40 = and i64 %39, 1
  %.not11.i31 = icmp eq i64 %40, 0
  br i1 %.not11.i31, label %.critedge.i33, label %41, !prof !15

41:                                               ; preds = %38
  %42 = shl i64 %39, 31
  %43 = icmp ult i64 %42, 4294967296
  br i1 %43, label %lean_int_mod.exit34, label %44

44:                                               ; preds = %41
  %45 = ashr i64 %42, 32
  %46 = shl i64 %3, 31
  %47 = ashr i64 %46, 32
  %48 = srem i64 %47, %45
  %49 = shl nsw i64 %48, 1
  %50 = and i64 %49, 8589934590
  %51 = or disjoint i64 %50, 1
  %52 = inttoptr i64 %51 to ptr
  br label %lean_int_mod.exit34

.critedge.i33:                                    ; preds = %38, %36
  %53 = tail call ptr @lean_int_big_mod(ptr noundef %0, ptr noundef %37) #6
  br label %lean_int_mod.exit34

lean_int_mod.exit34:                              ; preds = %41, %44, %.critedge.i33
  %.1.i32 = phi ptr [ %53, %.critedge.i33 ], [ %0, %41 ], [ %52, %44 ]
  %54 = ptrtoint ptr %.1.i32 to i64
  %55 = and i64 %54, 1
  %56 = and i64 %55, %23
  %or.cond.not.i.i35 = icmp eq i64 %56, 0
  br i1 %or.cond.not.i.i35, label %.critedge.i.i37, label %57, !prof !16

57:                                               ; preds = %lean_int_mod.exit34
  %58 = icmp eq ptr %.1.i32, %21
  br label %lean_int_dec_eq.exit38

.critedge.i.i37:                                  ; preds = %lean_int_mod.exit34
  %59 = tail call zeroext i1 @lean_int_big_eq(ptr noundef %.1.i32, ptr noundef %21) #6
  br label %lean_int_dec_eq.exit38

lean_int_dec_eq.exit38:                           ; preds = %57, %.critedge.i.i37
  %.0.i.i36 = phi i1 [ %58, %57 ], [ %59, %.critedge.i.i37 ]
  %60 = zext i1 %.0.i.i36 to i8
  %.not48 = icmp eq i64 %55, 0
  br i1 %.not48, label %61, label %lean_dec.exit23

61:                                               ; preds = %lean_int_dec_eq.exit38
  %62 = load i32, ptr %.1.i32, align 4, !tbaa !4
  %63 = icmp sgt i32 %62, 1
  br i1 %63, label %64, label %66, !prof !9

64:                                               ; preds = %61
  %65 = add nsw i32 %62, -1
  store i32 %65, ptr %.1.i32, align 4, !tbaa !4
  br label %lean_dec.exit23

66:                                               ; preds = %61
  %.not.i25 = icmp eq i32 %62, 0
  br i1 %.not.i25, label %lean_dec.exit23, label %67

67:                                               ; preds = %66
  tail call void @lean_dec_ref_cold(ptr noundef nonnull %.1.i32) #6
  br label %lean_dec.exit23

lean_dec.exit23:                                  ; preds = %67, %66, %64, %lean_int_dec_eq.exit38
  %68 = tail call zeroext i8 @l_instDecidableNot___rarg(i8 noundef zeroext %60) #6
  %69 = icmp eq i8 %68, 0
  br i1 %69, label %70, label %101

70:                                               ; preds = %lean_dec.exit23
  %71 = load ptr, ptr @l_Std_Time_Year_Offset_isLeap___closed__4, align 8, !tbaa !10
  br i1 %.not.i29, label %.critedge.i42, label %72, !prof !15

72:                                               ; preds = %70
  %73 = ptrtoint ptr %71 to i64
  %74 = and i64 %73, 1
  %.not11.i40 = icmp eq i64 %74, 0
  br i1 %.not11.i40, label %.critedge.i42, label %75, !prof !15

75:                                               ; preds = %72
  %76 = shl i64 %73, 31
  %77 = icmp ult i64 %76, 4294967296
  br i1 %77, label %lean_int_mod.exit43, label %78

78:                                               ; preds = %75
  %79 = ashr i64 %76, 32
  %80 = shl i64 %3, 31
  %81 = ashr i64 %80, 32
  %82 = srem i64 %81, %79
  %83 = shl nsw i64 %82, 1
  %84 = and i64 %83, 8589934590
  %85 = or disjoint i64 %84, 1
  %86 = inttoptr i64 %85 to ptr
  br label %lean_int_mod.exit43

.critedge.i42:                                    ; preds = %72, %70
  %87 = tail call ptr @lean_int_big_mod(ptr noundef %0, ptr noundef %71) #6
  br label %lean_int_mod.exit43

lean_int_mod.exit43:                              ; preds = %75, %78, %.critedge.i42
  %.1.i41 = phi ptr [ %87, %.critedge.i42 ], [ %0, %75 ], [ %86, %78 ]
  %88 = ptrtoint ptr %.1.i41 to i64
  %89 = and i64 %88, 1
  %90 = and i64 %89, %23
  %or.cond.not.i.i44 = icmp eq i64 %90, 0
  br i1 %or.cond.not.i.i44, label %.critedge.i.i46, label %91, !prof !16

91:                                               ; preds = %lean_int_mod.exit43
  %92 = icmp eq ptr %.1.i41, %21
  br label %lean_int_dec_eq.exit47

.critedge.i.i46:                                  ; preds = %lean_int_mod.exit43
  %93 = tail call zeroext i1 @lean_int_big_eq(ptr noundef %.1.i41, ptr noundef %21) #6
  br label %lean_int_dec_eq.exit47

lean_int_dec_eq.exit47:                           ; preds = %91, %.critedge.i.i46
  %.0.i.i45 = phi i1 [ %92, %91 ], [ %93, %.critedge.i.i46 ]
  %.not49 = icmp eq i64 %89, 0
  br i1 %.not49, label %94, label %lean_dec.exit

94:                                               ; preds = %lean_int_dec_eq.exit47
  %95 = load i32, ptr %.1.i41, align 4, !tbaa !4
  %96 = icmp sgt i32 %95, 1
  br i1 %96, label %97, label %99, !prof !9

97:                                               ; preds = %94
  %98 = add nsw i32 %95, -1
  store i32 %98, ptr %.1.i41, align 4, !tbaa !4
  br label %lean_dec.exit

99:                                               ; preds = %94
  %.not.i27 = icmp eq i32 %95, 0
  br i1 %.not.i27, label %lean_dec.exit, label %100

100:                                              ; preds = %99
  tail call void @lean_dec_ref_cold(ptr noundef nonnull %.1.i41) #6
  br label %lean_dec.exit

lean_dec.exit:                                    ; preds = %100, %99, %97, %lean_int_dec_eq.exit47
  %l_Std_Time_Year_Offset_days___closed__10.l_Std_Time_Year_Offset_days___closed__14 = select i1 %.0.i.i45, ptr @l_Std_Time_Year_Offset_days___closed__14, ptr @l_Std_Time_Year_Offset_days___closed__10
  br label %101

101:                                              ; preds = %lean_dec.exit, %lean_dec.exit23, %lean_dec.exit24
  %.0.in = phi ptr [ @l_Std_Time_Year_Offset_days___closed__10, %lean_dec.exit24 ], [ %l_Std_Time_Year_Offset_days___closed__10.l_Std_Time_Year_Offset_days___closed__14, %lean_dec.exit ], [ @l_Std_Time_Year_Offset_days___closed__14, %lean_dec.exit23 ]
  %.0 = load ptr, ptr %.0.in, align 8, !tbaa !10
  ret ptr %.0
}